   1               		.file	"Pin.c"
   2               	__SP_H__ = 0x3e
   3               	__SP_L__ = 0x3d
   4               	__SREG__ = 0x3f
   5               	__RAMPZ__ = 0x3b
   6               	__tmp_reg__ = 0
   7               	__zero_reg__ = 1
   8               		.text
   9               	.Ltext0:
  10               		.cfi_sections	.debug_frame
  11               	.global	Pin_SetMode
  13               	Pin_SetMode:
  14               	.LFB4:
  15               		.file 1 "src/Pin.c"
   1:src/Pin.c     **** #include "Pin.h"
   2:src/Pin.c     **** 
   3:src/Pin.c     **** 
   4:src/Pin.c     **** void Pin_SetMode(Pin* pin, PinMode mode) {
  16               		.loc 1 4 0
  17               		.cfi_startproc
  18               	.LVL0:
  19               	/* prologue: function */
  20               	/* frame size = 0 */
  21               	/* stack size = 0 */
  22               	.L__stack_usage = 0
  23 0000 FC01      		movw r30,r24
  24 0002 4681      		ldd r20,Z+6
   5:src/Pin.c     **** 	if (mode == PIN_INPUT) {
  25               		.loc 1 5 0
  26 0004 6111      		cpse r22,__zero_reg__
  27 0006 00C0      		rjmp .L2
   6:src/Pin.c     **** 		// Set pull-up resistor
   7:src/Pin.c     **** 		set_bit(*(pin->PORTx), pin->Pxn);
  28               		.loc 1 7 0
  29 0008 A281      		ldd r26,Z+2
  30 000a B381      		ldd r27,Z+3
  31 000c 5C91      		ld r21,X
  32 000e 21E0      		ldi r18,lo8(1)
  33 0010 30E0      		ldi r19,0
  34 0012 C901      		movw r24,r18
  35               	.LVL1:
  36 0014 00C0      		rjmp 2f
  37               		1:
  38 0016 880F      		lsl r24
  39               		2:
  40 0018 4A95      		dec r20
  41 001a 02F4      		brpl 1b
  42 001c 852B      		or r24,r21
  43 001e 8C93      		st X,r24
   8:src/Pin.c     **** 
   9:src/Pin.c     **** 		// Set input pin
  10:src/Pin.c     **** 		clear_bit(*(pin->DDRx), pin->Pxn);
  44               		.loc 1 10 0
  45 0020 A081      		ld r26,Z
  46 0022 B181      		ldd r27,Z+1
  47 0024 8C91      		ld r24,X
  48 0026 0680      		ldd r0,Z+6
  49 0028 00C0      		rjmp 2f
  50               		1:
  51 002a 220F      		lsl r18
  52 002c 331F      		rol r19
  53               		2:
  54 002e 0A94      		dec r0
  55 0030 02F4      		brpl 1b
  56 0032 2095      		com r18
  57 0034 2823      		and r18,r24
  58 0036 2C93      		st X,r18
  59 0038 0895      		ret
  60               	.LVL2:
  61               	.L2:
  11:src/Pin.c     **** 	} else {
  12:src/Pin.c     **** 		set_bit(*(pin->DDRx), pin->Pxn);
  62               		.loc 1 12 0
  63 003a 0190      		ld __tmp_reg__,Z+
  64 003c F081      		ld r31,Z
  65 003e E02D      		mov r30,__tmp_reg__
  66 0040 2081      		ld r18,Z
  67 0042 81E0      		ldi r24,lo8(1)
  68 0044 90E0      		ldi r25,0
  69               	.LVL3:
  70 0046 00C0      		rjmp 2f
  71               		1:
  72 0048 880F      		lsl r24
  73               		2:
  74 004a 4A95      		dec r20
  75 004c 02F4      		brpl 1b
  76 004e 822B      		or r24,r18
  77 0050 8083      		st Z,r24
  78 0052 0895      		ret
  79               		.cfi_endproc
  80               	.LFE4:
  82               	.global	Pin_EnableAnalog
  84               	Pin_EnableAnalog:
  85               	.LFB5:
  13:src/Pin.c     **** 	}
  14:src/Pin.c     **** }
  15:src/Pin.c     **** 
  16:src/Pin.c     **** void Pin_EnableAnalog(Pin* pin, PinFrequency frequency) {
  86               		.loc 1 16 0
  87               		.cfi_startproc
  88               	.LVL4:
  89 0054 CF93      		push r28
  90               	.LCFI0:
  91               		.cfi_def_cfa_offset 3
  92               		.cfi_offset 28, -2
  93 0056 DF93      		push r29
  94               	.LCFI1:
  95               		.cfi_def_cfa_offset 4
  96               		.cfi_offset 29, -3
  97               	/* prologue: function */
  98               	/* frame size = 0 */
  99               	/* stack size = 2 */
 100               	.L__stack_usage = 2
 101 0058 DC01      		movw r26,r24
  17:src/Pin.c     **** 	switch (pin->timer->bits) {
 102               		.loc 1 17 0
 103 005a 1796      		adiw r26,7
 104 005c ED91      		ld r30,X+
 105 005e FC91      		ld r31,X
 106 0060 1897      		sbiw r26,7+1
 107 0062 8785      		ldd r24,Z+15
 108               	.LVL5:
 109 0064 8830      		cpi r24,lo8(8)
 110 0066 01F0      		breq .L7
 111 0068 8031      		cpi r24,lo8(16)
 112 006a 01F4      		brne .+2
 113 006c 00C0      		rjmp .L8
 114 006e 00C0      		rjmp .L5
 115               	.L7:
  18:src/Pin.c     **** 		// Configuration for 8bit timers
  19:src/Pin.c     **** 		case 8:
  20:src/Pin.c     **** 			switch (frequency) {
 116               		.loc 1 20 0
 117 0070 6130      		cpi r22,lo8(1)
 118 0072 01F0      		breq .L9
 119 0074 00F4      		brsh .+2
 120 0076 00C0      		rjmp .L10
 121 0078 6330      		cpi r22,lo8(3)
 122 007a 01F0      		breq .+2
 123 007c 00C0      		rjmp .L5
  21:src/Pin.c     **** 				case PIN_7KHz:
  22:src/Pin.c     **** 					*(pin->timer->TCCRnA) |=
  23:src/Pin.c     **** 						(1 << pin->timer->WGMn0) |
  24:src/Pin.c     **** 						(1 << pin->timer->WGMn1) |
  25:src/Pin.c     **** 						(1 << pin->timer->COMnA1) |
  26:src/Pin.c     **** 						(1 << pin->timer->CSn1);
  27:src/Pin.c     **** 				break;
  28:src/Pin.c     **** 				case PIN_1KHz:
  29:src/Pin.c     **** 					*(pin->timer->TCCRnA) |=
  30:src/Pin.c     **** 					(1 << pin->timer->WGMn0) |
  31:src/Pin.c     **** 					(1 << pin->timer->WGMn1) |
  32:src/Pin.c     **** 					(1 << pin->timer->COMnA1) |
  33:src/Pin.c     **** 					(1 << pin->timer->CSn0) |
  34:src/Pin.c     **** 					(1 << pin->timer->CSn1);
  35:src/Pin.c     **** 				break;
  36:src/Pin.c     **** 				case PIN_66KHz:
  37:src/Pin.c     **** 					*(pin->timer->TCCRnA) |=
 124               		.loc 1 37 0
 125 007e A081      		ld r26,Z
 126 0080 B181      		ldd r27,Z+1
 127               	.LVL6:
 128 0082 3C91      		ld r19,X
  38:src/Pin.c     **** 					(1 << pin->timer->WGMn0) |
 129               		.loc 1 38 0
 130 0084 81E0      		ldi r24,lo8(1)
 131 0086 90E0      		ldi r25,0
 132 0088 BC01      		movw r22,r24
 133               	.LVL7:
 134 008a 0084      		ldd r0,Z+8
 135 008c 00C0      		rjmp 2f
 136               		1:
 137 008e 660F      		lsl r22
 138 0090 771F      		rol r23
 139               		2:
 140 0092 0A94      		dec r0
 141 0094 02F4      		brpl 1b
  39:src/Pin.c     **** 					(1 << pin->timer->WGMn1) |
 142               		.loc 1 39 0
 143 0096 AC01      		movw r20,r24
 144 0098 0184      		ldd r0,Z+9
 145 009a 00C0      		rjmp 2f
 146               		1:
 147 009c 440F      		lsl r20
 148 009e 551F      		rol r21
 149               		2:
 150 00a0 0A94      		dec r0
 151 00a2 02F4      		brpl 1b
  37:src/Pin.c     **** 					(1 << pin->timer->WGMn0) |
 152               		.loc 1 37 0
 153 00a4 462B      		or r20,r22
 154 00a6 432B      		or r20,r19
  40:src/Pin.c     **** 					(1 << pin->timer->COMnA1) |
 155               		.loc 1 40 0
 156 00a8 9C01      		movw r18,r24
 157 00aa 0484      		ldd r0,Z+12
 158 00ac 00C0      		rjmp 2f
 159               		1:
 160 00ae 220F      		lsl r18
 161 00b0 331F      		rol r19
 162               		2:
 163 00b2 0A94      		dec r0
 164 00b4 02F4      		brpl 1b
 165 00b6 242B      		or r18,r20
  41:src/Pin.c     **** 					(1 << pin->timer->CSn0);
 166               		.loc 1 41 0
 167 00b8 0584      		ldd r0,Z+13
 168 00ba 00C0      		rjmp 2f
 169               		1:
 170 00bc 880F      		lsl r24
 171 00be 991F      		rol r25
 172               		2:
 173 00c0 0A94      		dec r0
 174 00c2 02F4      		brpl 1b
 175 00c4 00C0      		rjmp .L16
 176               	.LVL8:
 177               	.L9:
  22:src/Pin.c     **** 						(1 << pin->timer->WGMn0) |
 178               		.loc 1 22 0
 179 00c6 A081      		ld r26,Z
 180 00c8 B181      		ldd r27,Z+1
 181               	.LVL9:
 182 00ca 3C91      		ld r19,X
  23:src/Pin.c     **** 						(1 << pin->timer->WGMn1) |
 183               		.loc 1 23 0
 184 00cc 81E0      		ldi r24,lo8(1)
 185 00ce 90E0      		ldi r25,0
 186 00d0 BC01      		movw r22,r24
 187               	.LVL10:
 188 00d2 0084      		ldd r0,Z+8
 189 00d4 00C0      		rjmp 2f
 190               		1:
 191 00d6 660F      		lsl r22
 192 00d8 771F      		rol r23
 193               		2:
 194 00da 0A94      		dec r0
 195 00dc 02F4      		brpl 1b
  24:src/Pin.c     **** 						(1 << pin->timer->COMnA1) |
 196               		.loc 1 24 0
 197 00de AC01      		movw r20,r24
 198 00e0 0184      		ldd r0,Z+9
 199 00e2 00C0      		rjmp 2f
 200               		1:
 201 00e4 440F      		lsl r20
 202 00e6 551F      		rol r21
 203               		2:
 204 00e8 0A94      		dec r0
 205 00ea 02F4      		brpl 1b
  22:src/Pin.c     **** 						(1 << pin->timer->WGMn0) |
 206               		.loc 1 22 0
 207 00ec 462B      		or r20,r22
 208 00ee 432B      		or r20,r19
  25:src/Pin.c     **** 						(1 << pin->timer->CSn1);
 209               		.loc 1 25 0
 210 00f0 9C01      		movw r18,r24
 211 00f2 0484      		ldd r0,Z+12
 212 00f4 00C0      		rjmp 2f
 213               		1:
 214 00f6 220F      		lsl r18
 215 00f8 331F      		rol r19
 216               		2:
 217 00fa 0A94      		dec r0
 218 00fc 02F4      		brpl 1b
 219 00fe 00C0      		rjmp .L15
 220               	.LVL11:
 221               	.L10:
  29:src/Pin.c     **** 					(1 << pin->timer->WGMn0) |
 222               		.loc 1 29 0
 223 0100 A081      		ld r26,Z
 224 0102 B181      		ldd r27,Z+1
 225               	.LVL12:
 226 0104 3C91      		ld r19,X
  30:src/Pin.c     **** 					(1 << pin->timer->WGMn1) |
 227               		.loc 1 30 0
 228 0106 81E0      		ldi r24,lo8(1)
 229 0108 90E0      		ldi r25,0
 230 010a BC01      		movw r22,r24
 231               	.LVL13:
 232 010c 0084      		ldd r0,Z+8
 233 010e 00C0      		rjmp 2f
 234               		1:
 235 0110 660F      		lsl r22
 236 0112 771F      		rol r23
 237               		2:
 238 0114 0A94      		dec r0
 239 0116 02F4      		brpl 1b
  31:src/Pin.c     **** 					(1 << pin->timer->COMnA1) |
 240               		.loc 1 31 0
 241 0118 AC01      		movw r20,r24
 242 011a 0184      		ldd r0,Z+9
 243 011c 00C0      		rjmp 2f
 244               		1:
 245 011e 440F      		lsl r20
 246 0120 551F      		rol r21
 247               		2:
 248 0122 0A94      		dec r0
 249 0124 02F4      		brpl 1b
  29:src/Pin.c     **** 					(1 << pin->timer->WGMn0) |
 250               		.loc 1 29 0
 251 0126 462B      		or r20,r22
 252 0128 242F      		mov r18,r20
 253 012a 232B      		or r18,r19
  32:src/Pin.c     **** 					(1 << pin->timer->CSn0) |
 254               		.loc 1 32 0
 255 012c AC01      		movw r20,r24
 256 012e 0484      		ldd r0,Z+12
 257 0130 00C0      		rjmp 2f
 258               		1:
 259 0132 440F      		lsl r20
 260 0134 551F      		rol r21
 261               		2:
 262 0136 0A94      		dec r0
 263 0138 02F4      		brpl 1b
 264 013a 422B      		or r20,r18
  33:src/Pin.c     **** 					(1 << pin->timer->CSn1);
 265               		.loc 1 33 0
 266 013c 9C01      		movw r18,r24
 267 013e 0584      		ldd r0,Z+13
 268 0140 00C0      		rjmp 2f
 269               		1:
 270 0142 220F      		lsl r18
 271 0144 331F      		rol r19
 272               		2:
 273 0146 0A94      		dec r0
 274 0148 02F4      		brpl 1b
 275               	.L15:
 276 014a 242B      		or r18,r20
  34:src/Pin.c     **** 				break;
 277               		.loc 1 34 0
 278 014c 0684      		ldd r0,Z+14
 279 014e 00C0      		rjmp 2f
 280               		1:
 281 0150 880F      		lsl r24
 282 0152 991F      		rol r25
 283               		2:
 284 0154 0A94      		dec r0
 285 0156 02F4      		brpl 1b
 286               	.L16:
  29:src/Pin.c     **** 					(1 << pin->timer->WGMn0) |
 287               		.loc 1 29 0
 288 0158 822B      		or r24,r18
 289 015a 8C93      		st X,r24
  35:src/Pin.c     **** 				case PIN_66KHz:
 290               		.loc 1 35 0
 291 015c 00C0      		rjmp .L5
 292               	.LVL14:
 293               	.L8:
  42:src/Pin.c     **** 				break;
  43:src/Pin.c     **** 			}
  44:src/Pin.c     **** 			break;
  45:src/Pin.c     **** 
  46:src/Pin.c     **** 		// Configuration for 16bit timers
  47:src/Pin.c     **** 		case 16:
  48:src/Pin.c     **** 			switch (frequency) {
 294               		.loc 1 48 0
 295 015e 6230      		cpi r22,lo8(2)
 296 0160 01F4      		brne .+2
 297 0162 00C0      		rjmp .L12
 298 0164 6330      		cpi r22,lo8(3)
 299 0166 01F0      		breq .L13
 300 0168 6111      		cpse r22,__zero_reg__
 301 016a 00C0      		rjmp .L5
  49:src/Pin.c     **** 				case PIN_66KHz:
  50:src/Pin.c     **** 					*(pin->timer->TCCRnA) |=
  51:src/Pin.c     **** 						(1 << pin->timer->WGMn0) |
  52:src/Pin.c     **** 						(1 << pin->timer->COMnA1);
  53:src/Pin.c     **** 
  54:src/Pin.c     **** 					*(pin->timer->TCCRnB) |=
  55:src/Pin.c     **** 						(1 << pin->timer->CSn0) |
  56:src/Pin.c     **** 						(1 << pin->timer->WGMn2);
  57:src/Pin.c     **** 
  58:src/Pin.c     **** 					clear_bit(*(pin->timer->TCCRnB), pin->timer->CSn1);
  59:src/Pin.c     **** 				break;
  60:src/Pin.c     **** 
  61:src/Pin.c     **** 				case PIN_1KHz:
  62:src/Pin.c     **** 					*(pin->timer->TCCRnA) |=
 302               		.loc 1 62 0
 303 016c C081      		ld r28,Z
 304 016e D181      		ldd r29,Z+1
 305 0170 9881      		ld r25,Y
  63:src/Pin.c     **** 						(1 << pin->timer->WGMn0) |
 306               		.loc 1 63 0
 307 0172 21E0      		ldi r18,lo8(1)
 308 0174 30E0      		ldi r19,0
 309 0176 B901      		movw r22,r18
 310               	.LVL15:
 311 0178 0084      		ldd r0,Z+8
 312 017a 00C0      		rjmp 2f
 313               		1:
 314 017c 660F      		lsl r22
 315 017e 771F      		rol r23
 316               		2:
 317 0180 0A94      		dec r0
 318 0182 02F4      		brpl 1b
  64:src/Pin.c     **** 						(1 << pin->timer->COMnA1);
 319               		.loc 1 64 0
 320 0184 A901      		movw r20,r18
 321 0186 0484      		ldd r0,Z+12
 322 0188 00C0      		rjmp 2f
 323               		1:
 324 018a 440F      		lsl r20
 325 018c 551F      		rol r21
 326               		2:
 327 018e 0A94      		dec r0
 328 0190 02F4      		brpl 1b
  62:src/Pin.c     **** 						(1 << pin->timer->WGMn0) |
 329               		.loc 1 62 0
 330 0192 862F      		mov r24,r22
 331 0194 842B      		or r24,r20
 332 0196 892B      		or r24,r25
 333 0198 8883      		st Y,r24
  65:src/Pin.c     **** 
  66:src/Pin.c     **** 					*(pin->timer->TCCRnB) |=
 334               		.loc 1 66 0
 335 019a 1796      		adiw r26,7
 336 019c ED91      		ld r30,X+
 337 019e FC91      		ld r31,X
 338 01a0 1897      		sbiw r26,7+1
 339 01a2 A281      		ldd r26,Z+2
 340 01a4 B381      		ldd r27,Z+3
 341               	.LVL16:
 342 01a6 9C91      		ld r25,X
  67:src/Pin.c     **** 						(1 << pin->timer->CSn0) |
 343               		.loc 1 67 0
 344 01a8 B901      		movw r22,r18
 345 01aa 0584      		ldd r0,Z+13
 346 01ac 00C0      		rjmp 2f
 347               		1:
 348 01ae 660F      		lsl r22
 349 01b0 771F      		rol r23
 350               		2:
 351 01b2 0A94      		dec r0
 352 01b4 02F4      		brpl 1b
  68:src/Pin.c     **** 						(1 << pin->timer->CSn1) |
 353               		.loc 1 68 0
 354 01b6 A901      		movw r20,r18
 355 01b8 0684      		ldd r0,Z+14
 356 01ba 00C0      		rjmp 2f
 357               		1:
 358 01bc 440F      		lsl r20
 359 01be 551F      		rol r21
 360               		2:
 361 01c0 0A94      		dec r0
 362 01c2 02F4      		brpl 1b
  66:src/Pin.c     **** 						(1 << pin->timer->CSn0) |
 363               		.loc 1 66 0
 364 01c4 862F      		mov r24,r22
 365 01c6 842B      		or r24,r20
 366 01c8 892B      		or r24,r25
  69:src/Pin.c     **** 						(1 << pin->timer->WGMn2);
 367               		.loc 1 69 0
 368 01ca 0284      		ldd r0,Z+10
 369 01cc 00C0      		rjmp 2f
 370               		1:
 371 01ce 220F      		lsl r18
 372 01d0 331F      		rol r19
 373               		2:
 374 01d2 0A94      		dec r0
 375 01d4 02F4      		brpl 1b
  66:src/Pin.c     **** 						(1 << pin->timer->CSn0) |
 376               		.loc 1 66 0
 377 01d6 282B      		or r18,r24
 378 01d8 2C93      		st X,r18
  70:src/Pin.c     **** 				break;
 379               		.loc 1 70 0
 380 01da 00C0      		rjmp .L5
 381               	.LVL17:
 382               	.L13:
  50:src/Pin.c     **** 						(1 << pin->timer->WGMn0) |
 383               		.loc 1 50 0
 384 01dc C081      		ld r28,Z
 385 01de D181      		ldd r29,Z+1
 386 01e0 9881      		ld r25,Y
  51:src/Pin.c     **** 						(1 << pin->timer->COMnA1);
 387               		.loc 1 51 0
 388 01e2 21E0      		ldi r18,lo8(1)
 389 01e4 30E0      		ldi r19,0
 390 01e6 B901      		movw r22,r18
 391               	.LVL18:
 392 01e8 0084      		ldd r0,Z+8
 393 01ea 00C0      		rjmp 2f
 394               		1:
 395 01ec 660F      		lsl r22
 396 01ee 771F      		rol r23
 397               		2:
 398 01f0 0A94      		dec r0
 399 01f2 02F4      		brpl 1b
  52:src/Pin.c     **** 
 400               		.loc 1 52 0
 401 01f4 A901      		movw r20,r18
 402 01f6 0484      		ldd r0,Z+12
 403 01f8 00C0      		rjmp 2f
 404               		1:
 405 01fa 440F      		lsl r20
 406 01fc 551F      		rol r21
 407               		2:
 408 01fe 0A94      		dec r0
 409 0200 02F4      		brpl 1b
  50:src/Pin.c     **** 						(1 << pin->timer->WGMn0) |
 410               		.loc 1 50 0
 411 0202 862F      		mov r24,r22
 412 0204 842B      		or r24,r20
 413 0206 892B      		or r24,r25
 414 0208 8883      		st Y,r24
  54:src/Pin.c     **** 						(1 << pin->timer->CSn0) |
 415               		.loc 1 54 0
 416 020a 1796      		adiw r26,7
 417 020c ED91      		ld r30,X+
 418 020e FC91      		ld r31,X
 419 0210 1897      		sbiw r26,7+1
 420 0212 C281      		ldd r28,Z+2
 421 0214 D381      		ldd r29,Z+3
 422 0216 9881      		ld r25,Y
  55:src/Pin.c     **** 						(1 << pin->timer->WGMn2);
 423               		.loc 1 55 0
 424 0218 B901      		movw r22,r18
 425 021a 0584      		ldd r0,Z+13
 426 021c 00C0      		rjmp 2f
 427               		1:
 428 021e 660F      		lsl r22
 429 0220 771F      		rol r23
 430               		2:
 431 0222 0A94      		dec r0
 432 0224 02F4      		brpl 1b
  56:src/Pin.c     **** 
 433               		.loc 1 56 0
 434 0226 A901      		movw r20,r18
 435 0228 0284      		ldd r0,Z+10
 436 022a 00C0      		rjmp 2f
 437               		1:
 438 022c 440F      		lsl r20
 439 022e 551F      		rol r21
 440               		2:
 441 0230 0A94      		dec r0
 442 0232 02F4      		brpl 1b
  54:src/Pin.c     **** 						(1 << pin->timer->CSn0) |
 443               		.loc 1 54 0
 444 0234 862F      		mov r24,r22
 445 0236 842B      		or r24,r20
 446 0238 892B      		or r24,r25
 447 023a 8883      		st Y,r24
  58:src/Pin.c     **** 				break;
 448               		.loc 1 58 0
 449 023c 1796      		adiw r26,7
 450 023e 0D90      		ld __tmp_reg__,X+
 451 0240 BC91      		ld r27,X
 452 0242 A02D      		mov r26,__tmp_reg__
 453               	.LVL19:
 454 0244 1296      		adiw r26,2
 455 0246 ED91      		ld r30,X+
 456 0248 FC91      		ld r31,X
 457 024a 1397      		sbiw r26,2+1
 458 024c 8081      		ld r24,Z
 459 024e 1E96      		adiw r26,14
 460 0250 0C90      		ld r0,X
 461 0252 00C0      		rjmp 2f
 462               		1:
 463 0254 220F      		lsl r18
 464 0256 331F      		rol r19
 465               		2:
 466 0258 0A94      		dec r0
 467 025a 02F4      		brpl 1b
 468 025c 2095      		com r18
 469 025e 2823      		and r18,r24
 470 0260 2083      		st Z,r18
  59:src/Pin.c     **** 
 471               		.loc 1 59 0
 472 0262 00C0      		rjmp .L5
 473               	.LVL20:
 474               	.L12:
  71:src/Pin.c     **** 
  72:src/Pin.c     **** 				case PIN_20KHz:
  73:src/Pin.c     **** 					*(pin->timer->TCCRnA) |=
 475               		.loc 1 73 0
 476 0264 C081      		ld r28,Z
 477 0266 D181      		ldd r29,Z+1
 478 0268 9881      		ld r25,Y
  74:src/Pin.c     **** 						(1 << pin->timer->WGMn1) |
 479               		.loc 1 74 0
 480 026a 21E0      		ldi r18,lo8(1)
 481 026c 30E0      		ldi r19,0
 482 026e B901      		movw r22,r18
 483               	.LVL21:
 484 0270 0184      		ldd r0,Z+9
 485 0272 00C0      		rjmp 2f
 486               		1:
 487 0274 660F      		lsl r22
 488 0276 771F      		rol r23
 489               		2:
 490 0278 0A94      		dec r0
 491 027a 02F4      		brpl 1b
  75:src/Pin.c     **** 						(1 << pin->timer->COMnA1);
 492               		.loc 1 75 0
 493 027c A901      		movw r20,r18
 494 027e 0484      		ldd r0,Z+12
 495 0280 00C0      		rjmp 2f
 496               		1:
 497 0282 440F      		lsl r20
 498 0284 551F      		rol r21
 499               		2:
 500 0286 0A94      		dec r0
 501 0288 02F4      		brpl 1b
  73:src/Pin.c     **** 						(1 << pin->timer->WGMn1) |
 502               		.loc 1 73 0
 503 028a 862F      		mov r24,r22
 504 028c 842B      		or r24,r20
 505 028e 892B      		or r24,r25
 506 0290 8883      		st Y,r24
  76:src/Pin.c     **** 
  77:src/Pin.c     **** 					*(pin->timer->TCCRnB) |=
 507               		.loc 1 77 0
 508 0292 1796      		adiw r26,7
 509 0294 ED91      		ld r30,X+
 510 0296 FC91      		ld r31,X
 511 0298 1897      		sbiw r26,7+1
 512 029a C281      		ldd r28,Z+2
 513 029c D381      		ldd r29,Z+3
 514 029e 9881      		ld r25,Y
  78:src/Pin.c     **** 						(1 << pin->timer->CSn1) |
 515               		.loc 1 78 0
 516 02a0 B901      		movw r22,r18
 517 02a2 0684      		ldd r0,Z+14
 518 02a4 00C0      		rjmp 2f
 519               		1:
 520 02a6 660F      		lsl r22
 521 02a8 771F      		rol r23
 522               		2:
 523 02aa 0A94      		dec r0
 524 02ac 02F4      		brpl 1b
  79:src/Pin.c     **** 						(1 << pin->timer->WGMn2) |
 525               		.loc 1 79 0
 526 02ae A901      		movw r20,r18
 527 02b0 0284      		ldd r0,Z+10
 528 02b2 00C0      		rjmp 2f
 529               		1:
 530 02b4 440F      		lsl r20
 531 02b6 551F      		rol r21
 532               		2:
 533 02b8 0A94      		dec r0
 534 02ba 02F4      		brpl 1b
  77:src/Pin.c     **** 						(1 << pin->timer->CSn1) |
 535               		.loc 1 77 0
 536 02bc 862F      		mov r24,r22
 537 02be 842B      		or r24,r20
 538 02c0 892B      		or r24,r25
  80:src/Pin.c     **** 						(1 << pin->timer->WGMn3);
 539               		.loc 1 80 0
 540 02c2 0384      		ldd r0,Z+11
 541 02c4 00C0      		rjmp 2f
 542               		1:
 543 02c6 220F      		lsl r18
 544 02c8 331F      		rol r19
 545               		2:
 546 02ca 0A94      		dec r0
 547 02cc 02F4      		brpl 1b
  77:src/Pin.c     **** 						(1 << pin->timer->CSn1) |
 548               		.loc 1 77 0
 549 02ce 282B      		or r18,r24
 550 02d0 2883      		st Y,r18
  81:src/Pin.c     **** 
  82:src/Pin.c     **** 					*(pin->timer->ICRn) = 100;
 551               		.loc 1 82 0
 552 02d2 1796      		adiw r26,7
 553 02d4 ED91      		ld r30,X+
 554 02d6 FC91      		ld r31,X
 555 02d8 1897      		sbiw r26,7+1
 556 02da 0680      		ldd __tmp_reg__,Z+6
 557 02dc F781      		ldd r31,Z+7
 558 02de E02D      		mov r30,__tmp_reg__
 559 02e0 84E6      		ldi r24,lo8(100)
 560 02e2 90E0      		ldi r25,0
 561 02e4 9183      		std Z+1,r25
 562 02e6 8083      		st Z,r24
 563               	.LVL22:
 564               	.L5:
 565               	/* epilogue start */
  83:src/Pin.c     **** 				break;
  84:src/Pin.c     **** 			}
  85:src/Pin.c     **** 			break;
  86:src/Pin.c     **** 	}
  87:src/Pin.c     **** }
 566               		.loc 1 87 0
 567 02e8 DF91      		pop r29
 568 02ea CF91      		pop r28
 569 02ec 0895      		ret
 570               		.cfi_endproc
 571               	.LFE5:
 573               	.global	Pin_WriteAnalog
 575               	Pin_WriteAnalog:
 576               	.LFB6:
  88:src/Pin.c     **** 
  89:src/Pin.c     **** void Pin_WriteAnalog(Pin* pin, uint16_t value) {
 577               		.loc 1 89 0
 578               		.cfi_startproc
 579               	.LVL23:
 580               	/* prologue: function */
 581               	/* frame size = 0 */
 582               	/* stack size = 0 */
 583               	.L__stack_usage = 0
  90:src/Pin.c     **** 	*(pin->timer->OCRnA) = value;
 584               		.loc 1 90 0
 585 02ee DC01      		movw r26,r24
 586 02f0 1796      		adiw r26,7
 587 02f2 ED91      		ld r30,X+
 588 02f4 FC91      		ld r31,X
 589 02f6 1897      		sbiw r26,7+1
 590 02f8 0480      		ldd __tmp_reg__,Z+4
 591 02fa F581      		ldd r31,Z+5
 592 02fc E02D      		mov r30,__tmp_reg__
 593 02fe 7183      		std Z+1,r23
 594 0300 6083      		st Z,r22
 595 0302 0895      		ret
 596               		.cfi_endproc
 597               	.LFE6:
 599               	.global	Pin_WriteDigital
 601               	Pin_WriteDigital:
 602               	.LFB7:
  91:src/Pin.c     **** }
  92:src/Pin.c     **** 
  93:src/Pin.c     **** void Pin_WriteDigital(Pin* pin, PinValue value) {
 603               		.loc 1 93 0
 604               		.cfi_startproc
 605               	.LVL24:
 606               	/* prologue: function */
 607               	/* frame size = 0 */
 608               	/* stack size = 0 */
 609               	.L__stack_usage = 0
 610 0304 DC01      		movw r26,r24
 611 0306 1296      		adiw r26,2
 612 0308 ED91      		ld r30,X+
 613 030a FC91      		ld r31,X
 614 030c 1397      		sbiw r26,2+1
 615 030e 1696      		adiw r26,6
 616 0310 3C91      		ld r19,X
  94:src/Pin.c     **** 	// TODO: Implement without condition
  95:src/Pin.c     **** 	if (value == PIN_HIGH) {
  96:src/Pin.c     **** 		set_bit(*(pin->PORTx), pin->Pxn);
 617               		.loc 1 96 0
 618 0312 2081      		ld r18,Z
 619 0314 81E0      		ldi r24,lo8(1)
 620 0316 90E0      		ldi r25,0
 621               	.LVL25:
 622 0318 00C0      		rjmp 2f
 623               		1:
 624 031a 880F      		lsl r24
 625               		2:
 626 031c 3A95      		dec r19
 627 031e 02F4      		brpl 1b
  95:src/Pin.c     **** 		set_bit(*(pin->PORTx), pin->Pxn);
 628               		.loc 1 95 0
 629 0320 6130      		cpi r22,lo8(1)
 630 0322 01F4      		brne .L19
 631               		.loc 1 96 0
 632 0324 822B      		or r24,r18
 633 0326 00C0      		rjmp .L21
 634               	.L19:
  97:src/Pin.c     **** 	} else {
  98:src/Pin.c     **** 		clear_bit(*(pin->PORTx), pin->Pxn);
 635               		.loc 1 98 0
 636 0328 8095      		com r24
 637 032a 8223      		and r24,r18
 638               	.L21:
 639 032c 8083      		st Z,r24
 640 032e 0895      		ret
 641               		.cfi_endproc
 642               	.LFE7:
 644               	.global	Pin_ReadDigital
 646               	Pin_ReadDigital:
 647               	.LFB8:
  99:src/Pin.c     **** 	}
 100:src/Pin.c     **** }
 101:src/Pin.c     **** 
 102:src/Pin.c     **** PinValue Pin_ReadDigital(Pin* pin) {
 648               		.loc 1 102 0
 649               		.cfi_startproc
 650               	.LVL26:
 651               	/* prologue: function */
 652               	/* frame size = 0 */
 653               	/* stack size = 0 */
 654               	.L__stack_usage = 0
 103:src/Pin.c     **** 	if (bit_is_set(*(pin->PINx), pin->Pxn)) {
 655               		.loc 1 103 0
 656 0330 DC01      		movw r26,r24
 657 0332 1496      		adiw r26,4
 658 0334 ED91      		ld r30,X+
 659 0336 FC91      		ld r31,X
 660 0338 1597      		sbiw r26,4+1
 661 033a 2081      		ld r18,Z
 662 033c 30E0      		ldi r19,0
 663 033e F901      		movw r30,r18
 664 0340 1696      		adiw r26,6
 665 0342 0C90      		ld r0,X
 666 0344 00C0      		rjmp 2f
 667               		1:
 668 0346 F595      		asr r31
 669 0348 E795      		ror r30
 670               		2:
 671 034a 0A94      		dec r0
 672 034c 02F4      		brpl 1b
 673 034e CF01      		movw r24,r30
 674               	.LVL27:
 104:src/Pin.c     **** 		return PIN_HIGH;
 105:src/Pin.c     **** 	} else {
 106:src/Pin.c     **** 		return PIN_LOW;
 107:src/Pin.c     **** 	}
 108:src/Pin.c     **** }
 675               		.loc 1 108 0
 676 0350 8170      		andi r24,lo8(1)
 677 0352 0895      		ret
 678               		.cfi_endproc
 679               	.LFE8:
 681               	.global	Pin_E3
 682               		.data
 685               	Pin_E3:
 686 0000 2D00      		.word	45
 687 0002 2E00      		.word	46
 688 0004 2C00      		.word	44
 689 0006 03        		.byte	3
 690 0007 0000      		.word	0
 691               	.global	Pin_E2
 694               	Pin_E2:
 695 0009 2D00      		.word	45
 696 000b 2E00      		.word	46
 697 000d 2C00      		.word	44
 698 000f 02        		.byte	2
 699 0010 0000      		.word	0
 700               	.global	Pin_F3
 703               	Pin_F3:
 704 0012 3000      		.word	48
 705 0014 3100      		.word	49
 706 0016 2F00      		.word	47
 707 0018 03        		.byte	3
 708 0019 0000      		.word	0
 709               	.global	Pin_F2
 712               	Pin_F2:
 713 001b 3000      		.word	48
 714 001d 3100      		.word	49
 715 001f 2F00      		.word	47
 716 0021 04        		.byte	4
 717 0022 0000      		.word	0
 718               	.global	Pin_C4
 721               	Pin_C4:
 722 0024 2700      		.word	39
 723 0026 2800      		.word	40
 724 0028 2600      		.word	38
 725 002a 04        		.byte	4
 726 002b 0000      		.word	0
 727               	.global	Pin_C3
 730               	Pin_C3:
 731 002d 2700      		.word	39
 732 002f 2800      		.word	40
 733 0031 2600      		.word	38
 734 0033 03        		.byte	3
 735 0034 0000      		.word	0
 736               	.global	Pin_C2
 739               	Pin_C2:
 740 0036 2700      		.word	39
 741 0038 2800      		.word	40
 742 003a 2600      		.word	38
 743 003c 02        		.byte	2
 744 003d 0000      		.word	0
 745               	.global	Pin_C1
 748               	Pin_C1:
 749 003f 2700      		.word	39
 750 0041 2800      		.word	40
 751 0043 2600      		.word	38
 752 0045 01        		.byte	1
 753 0046 0000      		.word	0
 754               	.global	Pin_C0
 757               	Pin_C0:
 758 0048 2700      		.word	39
 759 004a 2800      		.word	40
 760 004c 2600      		.word	38
 761 004e 00        		.byte	0
 762 004f 0000      		.word	0
 763               	.global	Pin_A3
 766               	Pin_A3:
 767 0051 2100      		.word	33
 768 0053 2200      		.word	34
 769 0055 2000      		.word	32
 770 0057 03        		.byte	3
 771 0058 0000      		.word	0
 772               	.global	Pin_A4
 775               	Pin_A4:
 776 005a 2100      		.word	33
 777 005c 2200      		.word	34
 778 005e 2000      		.word	32
 779 0060 04        		.byte	4
 780 0061 0000      		.word	0
 781               	.global	Pin_A5
 784               	Pin_A5:
 785 0063 2100      		.word	33
 786 0065 2200      		.word	34
 787 0067 2000      		.word	32
 788 0069 05        		.byte	5
 789 006a 0000      		.word	0
 790               	.global	Pin_A6
 793               	Pin_A6:
 794 006c 2100      		.word	33
 795 006e 2200      		.word	34
 796 0070 2000      		.word	32
 797 0072 06        		.byte	6
 798 0073 0000      		.word	0
 799               	.global	Pin_A7
 802               	Pin_A7:
 803 0075 2100      		.word	33
 804 0077 2200      		.word	34
 805 0079 2000      		.word	32
 806 007b 07        		.byte	7
 807 007c 0000      		.word	0
 808               	.global	Pin_G2
 811               	Pin_G2:
 812 007e 3300      		.word	51
 813 0080 3400      		.word	52
 814 0082 3200      		.word	50
 815 0084 02        		.byte	2
 816 0085 0000      		.word	0
 817               	.global	Pin_C7
 820               	Pin_C7:
 821 0087 2700      		.word	39
 822 0089 2800      		.word	40
 823 008b 2600      		.word	38
 824 008d 07        		.byte	7
 825 008e 0000      		.word	0
 826               	.global	Pin_C6
 829               	Pin_C6:
 830 0090 2700      		.word	39
 831 0092 2800      		.word	40
 832 0094 2600      		.word	38
 833 0096 06        		.byte	6
 834 0097 0000      		.word	0
 835               	.global	Pin_A0
 838               	Pin_A0:
 839 0099 2100      		.word	33
 840 009b 2200      		.word	34
 841 009d 2000      		.word	32
 842 009f 00        		.byte	0
 843 00a0 0000      		.word	0
 844               	.global	Pin_A1
 847               	Pin_A1:
 848 00a2 2100      		.word	33
 849 00a4 2200      		.word	34
 850 00a6 2000      		.word	32
 851 00a8 01        		.byte	1
 852 00a9 0000      		.word	0
 853               	.global	Pin_A2
 856               	Pin_A2:
 857 00ab 2100      		.word	33
 858 00ad 2200      		.word	34
 859 00af 2000      		.word	32
 860 00b1 02        		.byte	2
 861 00b2 0000      		.word	0
 862               	.global	Pin_B0
 865               	Pin_B0:
 866 00b4 2400      		.word	36
 867 00b6 2500      		.word	37
 868 00b8 2300      		.word	35
 869 00ba 00        		.byte	0
 870 00bb 0000      		.word	0
 871               	.global	Pin_B7
 874               	Pin_B7:
 875 00bd 2400      		.word	36
 876 00bf 2500      		.word	37
 877 00c1 2300      		.word	35
 878 00c3 07        		.byte	7
 879 00c4 0000      		.word	Timer_0A
 880               	.global	Pin_B2
 883               	Pin_B2:
 884 00c6 2400      		.word	36
 885 00c8 2500      		.word	37
 886 00ca 2300      		.word	35
 887 00cc 02        		.byte	2
 888 00cd 0000      		.word	0
 889               	.global	Pin_B3
 892               	Pin_B3:
 893 00cf 2400      		.word	36
 894 00d1 2500      		.word	37
 895 00d3 2300      		.word	35
 896 00d5 03        		.byte	3
 897 00d6 0000      		.word	0
 898               	.global	Pin_B5
 901               	Pin_B5:
 902 00d8 2400      		.word	36
 903 00da 2500      		.word	37
 904 00dc 2300      		.word	35
 905 00de 05        		.byte	5
 906 00df 0000      		.word	Timer_1A
 907               	.global	Pin_B4
 910               	Pin_B4:
 911 00e1 2400      		.word	36
 912 00e3 2500      		.word	37
 913 00e5 2300      		.word	35
 914 00e7 04        		.byte	4
 915 00e8 0000      		.word	Timer_2A
 916               	.global	Timer_2A
 919               	Timer_2A:
 920 00ea B000      		.word	176
 921 00ec 0000      		.zero	2
 922 00ee B300      		.word	179
 923 00f0 0000      		.word	0
 924 00f2 06        		.byte	6
 925 00f3 03        		.byte	3
 926 00f4 00        		.byte	0
 927 00f5 00        		.byte	0
 928 00f6 05        		.byte	5
 929 00f7 00        		.byte	0
 930 00f8 01        		.byte	1
 931 00f9 08        		.byte	8
 932               	.global	Timer_0A
 935               	Timer_0A:
 936 00fa 4400      		.word	68
 937 00fc 0000      		.zero	2
 938 00fe 4700      		.word	71
 939 0100 0000      		.word	0
 940 0102 06        		.byte	6
 941 0103 03        		.byte	3
 942 0104 00        		.byte	0
 943 0105 00        		.byte	0
 944 0106 05        		.byte	5
 945 0107 00        		.byte	0
 946 0108 01        		.byte	1
 947 0109 08        		.byte	8
 948               	.global	Timer_1A
 951               	Timer_1A:
 952 010a 8000      		.word	128
 953 010c 8100      		.word	129
 954 010e 8800      		.word	136
 955 0110 8600      		.word	134
 956 0112 00        		.byte	0
 957 0113 01        		.byte	1
 958 0114 03        		.byte	3
 959 0115 04        		.byte	4
 960 0116 07        		.byte	7
 961 0117 00        		.byte	0
 962 0118 01        		.byte	1
 963 0119 10        		.byte	16
 964               		.text
 965               	.Letext0:
 966               		.file 2 "/usr/lib/avr/include/stdint.h"
 967               		.file 3 "src/Pin.h"
DEFINED SYMBOLS
                            *ABS*:0000000000000000 Pin.c
     /tmp/ccAANSbz.s:2      *ABS*:000000000000003e __SP_H__
     /tmp/ccAANSbz.s:3      *ABS*:000000000000003d __SP_L__
     /tmp/ccAANSbz.s:4      *ABS*:000000000000003f __SREG__
     /tmp/ccAANSbz.s:5      *ABS*:000000000000003b __RAMPZ__
     /tmp/ccAANSbz.s:6      *ABS*:0000000000000000 __tmp_reg__
     /tmp/ccAANSbz.s:7      *ABS*:0000000000000001 __zero_reg__
     /tmp/ccAANSbz.s:13     .text:0000000000000000 Pin_SetMode
     /tmp/ccAANSbz.s:84     .text:0000000000000054 Pin_EnableAnalog
     /tmp/ccAANSbz.s:575    .text:00000000000002ee Pin_WriteAnalog
     /tmp/ccAANSbz.s:601    .text:0000000000000304 Pin_WriteDigital
     /tmp/ccAANSbz.s:646    .text:0000000000000330 Pin_ReadDigital
     /tmp/ccAANSbz.s:685    .data:0000000000000000 Pin_E3
     /tmp/ccAANSbz.s:694    .data:0000000000000009 Pin_E2
     /tmp/ccAANSbz.s:703    .data:0000000000000012 Pin_F3
     /tmp/ccAANSbz.s:712    .data:000000000000001b Pin_F2
     /tmp/ccAANSbz.s:721    .data:0000000000000024 Pin_C4
     /tmp/ccAANSbz.s:730    .data:000000000000002d Pin_C3
     /tmp/ccAANSbz.s:739    .data:0000000000000036 Pin_C2
     /tmp/ccAANSbz.s:748    .data:000000000000003f Pin_C1
     /tmp/ccAANSbz.s:757    .data:0000000000000048 Pin_C0
     /tmp/ccAANSbz.s:766    .data:0000000000000051 Pin_A3
     /tmp/ccAANSbz.s:775    .data:000000000000005a Pin_A4
     /tmp/ccAANSbz.s:784    .data:0000000000000063 Pin_A5
     /tmp/ccAANSbz.s:793    .data:000000000000006c Pin_A6
     /tmp/ccAANSbz.s:802    .data:0000000000000075 Pin_A7
     /tmp/ccAANSbz.s:811    .data:000000000000007e Pin_G2
     /tmp/ccAANSbz.s:820    .data:0000000000000087 Pin_C7
     /tmp/ccAANSbz.s:829    .data:0000000000000090 Pin_C6
     /tmp/ccAANSbz.s:838    .data:0000000000000099 Pin_A0
     /tmp/ccAANSbz.s:847    .data:00000000000000a2 Pin_A1
     /tmp/ccAANSbz.s:856    .data:00000000000000ab Pin_A2
     /tmp/ccAANSbz.s:865    .data:00000000000000b4 Pin_B0
     /tmp/ccAANSbz.s:874    .data:00000000000000bd Pin_B7
     /tmp/ccAANSbz.s:935    .data:00000000000000fa Timer_0A
     /tmp/ccAANSbz.s:883    .data:00000000000000c6 Pin_B2
     /tmp/ccAANSbz.s:892    .data:00000000000000cf Pin_B3
     /tmp/ccAANSbz.s:901    .data:00000000000000d8 Pin_B5
     /tmp/ccAANSbz.s:951    .data:000000000000010a Timer_1A
     /tmp/ccAANSbz.s:910    .data:00000000000000e1 Pin_B4
     /tmp/ccAANSbz.s:919    .data:00000000000000ea Timer_2A

UNDEFINED SYMBOLS
__do_copy_data
